target datalayout = "e-m:e-p270:32:32-p271:32:32-p272:64:64-i64:64-i128:128-f80:128-n8:16:32:64-S128"
target triple = "x86_64-pc-linux-gnu"

%struct.blake2b_state = type <{ [8 x i64], [2 x i64], [2 x i64], [256 x i8], i64, i8 }>
%struct.blake2b_param_ = type { i8, i8, i8, i8, [4 x i8], [8 x i8], i8, i8, [14 x i8], [16 x i8], [16 x i8] }

@blake2b_IV = internal constant [8 x i64] [i64 7640891576956012808, i64 -4942790177534073029, i64 4354685564936845355, i64 -6534734903238641935, i64 5840696475078001361, i64 -7276294671716946913, i64 2270897969802886507, i64 6620516959819538809], align 16

; Function Attrs: inlinehint nounwind ssp uwtable
define internal i64 @load64_le(ptr noundef %0) #2 {
  %2 = alloca ptr, align 8
  %3 = alloca i64, align 8
  store ptr %0, ptr %2, align 8
  call void @llvm.lifetime.start.p0(i64 8, ptr %3) #8
  %4 = load ptr, ptr %2, align 8
  %5 = call ptr @memcpy.inline(ptr noundef %3, ptr noundef %4, i64 noundef 8) #8
  %6 = load i64, ptr %3, align 8
  call void @llvm.lifetime.end.p0(i64 8, ptr %3) #8
  ret i64 %6
}

; Function Attrs: inlinehint nounwind ssp uwtable
define internal i32 @blake2b_init0(ptr noundef %0) #2 {
  %2 = alloca ptr, align 8
  %3 = alloca i32, align 4
  store ptr %0, ptr %2, align 8
  call void @llvm.lifetime.start.p0(i64 4, ptr %3) #8
  store i32 0, ptr %3, align 4
  br label %4

4:                                                ; preds = %17, %1
  %5 = load i32, ptr %3, align 4
  %6 = icmp slt i32 %5, 8
  br i1 %6, label %7, label %20

7:                                                ; preds = %4
  %8 = load i32, ptr %3, align 4
  %9 = sext i32 %8 to i64
  %10 = getelementptr [8 x i64], ptr @blake2b_IV, i64 0, i64 %9
  %11 = load i64, ptr %10, align 8
  %12 = load ptr, ptr %2, align 8
  %13 = getelementptr inbounds nuw %struct.blake2b_state, ptr %12, i32 0, i32 0
  %14 = load i32, ptr %3, align 4
  %15 = sext i32 %14 to i64
  %16 = getelementptr [8 x i64], ptr %13, i64 0, i64 %15
  store i64 %11, ptr %16, align 1
  br label %17

17:                                               ; preds = %7
  %18 = load i32, ptr %3, align 4
  %19 = add i32 %18, 1
  store i32 %19, ptr %3, align 4
  br label %4, !llvm.loop !6

20:                                               ; preds = %4
  %21 = load ptr, ptr %2, align 8
  %22 = getelementptr inbounds nuw %struct.blake2b_state, ptr %21, i32 0, i32 1
  %23 = call ptr @memset.inline(ptr noundef %22, i32 noundef 0, i64 noundef 297) #8
  call void @llvm.lifetime.end.p0(i64 4, ptr %3) #8
  ret i32 0
}

; Function Attrs: alwaysinline nounwind
define internal ptr @memcpy.inline(ptr noalias nonnull %0, ptr noalias nonnull %1, i64 %2) #4 {
  %4 = alloca ptr, align 8
  %5 = alloca ptr, align 8
  %6 = alloca i64, align 8
  store ptr %0, ptr %4, align 8
  store ptr %1, ptr %5, align 8
  store i64 %2, ptr %6, align 8
  %7 = load ptr, ptr %4, align 8
  %8 = load ptr, ptr %5, align 8
  %9 = load i64, ptr %6, align 8
  %10 = load ptr, ptr %4, align 8
  %11 = call i64 @llvm.objectsize.i64.p0(ptr %10, i1 false, i1 true, i1 true)
  %12 = call ptr @__memcpy_chk(ptr noundef %7, ptr noundef %8, i64 noundef %9, i64 noundef %11) #8
  ret ptr %12
}

; Function Attrs: nounwind ssp uwtable
define hidden i32 @_sodium_blake2b_init_param(ptr noundef %0, ptr noundef %1) #0 {
  %3 = alloca ptr, align 8
  %4 = alloca ptr, align 8
  %5 = alloca i64, align 8
  %6 = alloca ptr, align 8
  store ptr %0, ptr %3, align 8
  store ptr %1, ptr %4, align 8
  call void @llvm.lifetime.start.p0(i64 8, ptr %5) #8
  call void @llvm.lifetime.start.p0(i64 8, ptr %6) #8
  %7 = load ptr, ptr %3, align 8
  %8 = call i32 @blake2b_init0(ptr noundef %7)
  %9 = load ptr, ptr %4, align 8
  store ptr %9, ptr %6, align 8
  store i64 0, ptr %5, align 8
  br label %10

10:                                               ; preds = %25, %2
  %11 = load i64, ptr %5, align 8
  %12 = icmp ult i64 %11, 8
  br i1 %12, label %13, label %28

13:                                               ; preds = %10
  %14 = load ptr, ptr %6, align 8
  %15 = load i64, ptr %5, align 8
  %16 = mul i64 8, %15
  %17 = getelementptr i8, ptr %14, i64 %16
  %18 = call i64 @load64_le(ptr noundef %17)
  %19 = load ptr, ptr %3, align 8
  %20 = getelementptr inbounds nuw %struct.blake2b_state, ptr %19, i32 0, i32 0
  %21 = load i64, ptr %5, align 8
  %22 = getelementptr [8 x i64], ptr %20, i64 0, i64 %21
  %23 = load i64, ptr %22, align 1
  %24 = xor i64 %23, %18
  store i64 %24, ptr %22, align 1
  br label %25

25:                                               ; preds = %13
  %26 = load i64, ptr %5, align 8
  %27 = add i64 %26, 1
  store i64 %27, ptr %5, align 8
  br label %10, !llvm.loop !4

28:                                               ; preds = %10
  call void @llvm.lifetime.end.p0(i64 8, ptr %6) #8
  call void @llvm.lifetime.end.p0(i64 8, ptr %5) #8
  ret i32 0
}

; Function Attrs: inlinehint nounwind ssp uwtable
define internal i32 @blake2b_param_set_personal(ptr noundef %0, ptr noundef %1) #2 {
  %3 = alloca ptr, align 8
  %4 = alloca ptr, align 8
  store ptr %0, ptr %3, align 8
  store ptr %1, ptr %4, align 8
  %5 = load ptr, ptr %3, align 8
  %6 = getelementptr inbounds nuw %struct.blake2b_param_, ptr %5, i32 0, i32 10
  %7 = getelementptr inbounds [16 x i8], ptr %6, i64 0, i64 0
  %8 = load ptr, ptr %4, align 8
  %9 = call ptr @memcpy.inline(ptr noundef %7, ptr noundef %8, i64 noundef 16) #8
  ret i32 0
}

; Function Attrs: inlinehint nounwind ssp uwtable
define internal i32 @blake2b_param_set_salt(ptr noundef %0, ptr noundef %1) #2 {
  %3 = alloca ptr, align 8
  %4 = alloca ptr, align 8
  store ptr %0, ptr %3, align 8
  store ptr %1, ptr %4, align 8
  %5 = load ptr, ptr %3, align 8
  %6 = getelementptr inbounds nuw %struct.blake2b_param_, ptr %5, i32 0, i32 9
  %7 = getelementptr inbounds [16 x i8], ptr %6, i64 0, i64 0
  %8 = load ptr, ptr %4, align 8
  %9 = call ptr @memcpy.inline(ptr noundef %7, ptr noundef %8, i64 noundef 16) #8
  ret i32 0
}

; Function Attrs: alwaysinline nounwind
define internal ptr @memset.inline(ptr nonnull %0, i32 %1, i64 %2) #4 {
  %4 = alloca ptr, align 8
  %5 = alloca i32, align 4
  %6 = alloca i64, align 8
  store ptr %0, ptr %4, align 8
  store i32 %1, ptr %5, align 4
  store i64 %2, ptr %6, align 8
  %7 = load ptr, ptr %4, align 8
  %8 = load i32, ptr %5, align 4
  %9 = load i64, ptr %6, align 8
  %10 = load ptr, ptr %4, align 8
  %11 = call i64 @llvm.objectsize.i64.p0(ptr %10, i1 false, i1 true, i1 true)
  %12 = call ptr @__memset_chk(ptr noundef %7, i32 noundef %8, i64 noundef %9, i64 noundef %11) #8
  ret ptr %12
}

; Function Attrs: inlinehint nounwind ssp uwtable
define internal void @store64_le(ptr noundef %0, i64 noundef %1) #2 {
  %3 = alloca ptr, align 8
  %4 = alloca i64, align 8
  store ptr %0, ptr %3, align 8
  store i64 %1, ptr %4, align 8
  %5 = load ptr, ptr %3, align 8
  %6 = call ptr @memcpy.inline(ptr noundef %5, ptr noundef %4, i64 noundef 8) #8
  ret void
}

; Function Attrs: inlinehint nounwind ssp uwtable
define internal void @store32_le(ptr noundef %0, i32 noundef %1) #2 {
  %3 = alloca ptr, align 8
  %4 = alloca i32, align 4
  store ptr %0, ptr %3, align 8
  store i32 %1, ptr %4, align 4
  %5 = load ptr, ptr %3, align 8
  %6 = call ptr @memcpy.inline(ptr noundef %5, ptr noundef %4, i64 noundef 4) #8
  ret void
}

; Function Attrs: nounwind ssp uwtable
define hidden i32 @_sodium_blake2b_init_key_salt_personal(ptr noundef %0, i8 noundef zeroext %1, ptr noundef %2, i8 noundef zeroext %3, ptr noundef %4, ptr noundef %5) #0 {
  %7 = alloca ptr, align 8
  %8 = alloca i8, align 1
  %9 = alloca ptr, align 8
  %10 = alloca i8, align 1
  %11 = alloca ptr, align 8
  %12 = alloca ptr, align 8
  %13 = alloca [1 x %struct.blake2b_param_], align 16
  %14 = alloca [128 x i8], align 16
  store ptr %0, ptr %7, align 8
  store i8 %1, ptr %8, align 1
  store ptr %2, ptr %9, align 8
  store i8 %3, ptr %10, align 1
  store ptr %4, ptr %11, align 8
  store ptr %5, ptr %12, align 8
  call void @llvm.lifetime.start.p0(i64 64, ptr %13) #8
  %15 = load i8, ptr %8, align 1
  %16 = icmp ne i8 %15, 0
  br i1 %16, label %17, label %21

17:                                               ; preds = %6
  %18 = load i8, ptr %8, align 1
  %19 = zext i8 %18 to i32
  %20 = icmp sgt i32 %19, 64
  br i1 %20, label %21, label %22

21:                                               ; preds = %17, %6
  call void @sodium_misuse() #9
  unreachable

22:                                               ; preds = %17
  %23 = load ptr, ptr %9, align 8
  %24 = icmp ne ptr %23, null
  br i1 %24, label %25, label %32

25:                                               ; preds = %22
  %26 = load i8, ptr %10, align 1
  %27 = icmp ne i8 %26, 0
  br i1 %27, label %28, label %32

28:                                               ; preds = %25
  %29 = load i8, ptr %10, align 1
  %30 = zext i8 %29 to i32
  %31 = icmp sgt i32 %30, 64
  br i1 %31, label %32, label %33

32:                                               ; preds = %28, %25, %22
  call void @sodium_misuse() #9
  unreachable

33:                                               ; preds = %28
  %34 = load i8, ptr %8, align 1
  %35 = getelementptr inbounds [1 x %struct.blake2b_param_], ptr %13, i64 0, i64 0
  %36 = getelementptr inbounds nuw %struct.blake2b_param_, ptr %35, i32 0, i32 0
  store i8 %34, ptr %36, align 16
  %37 = load i8, ptr %10, align 1
  %38 = getelementptr inbounds [1 x %struct.blake2b_param_], ptr %13, i64 0, i64 0
  %39 = getelementptr inbounds nuw %struct.blake2b_param_, ptr %38, i32 0, i32 1
  store i8 %37, ptr %39, align 1
  %40 = getelementptr inbounds [1 x %struct.blake2b_param_], ptr %13, i64 0, i64 0
  %41 = getelementptr inbounds nuw %struct.blake2b_param_, ptr %40, i32 0, i32 2
  store i8 1, ptr %41, align 2
  %42 = getelementptr inbounds [1 x %struct.blake2b_param_], ptr %13, i64 0, i64 0
  %43 = getelementptr inbounds nuw %struct.blake2b_param_, ptr %42, i32 0, i32 3
  store i8 1, ptr %43, align 1
  %44 = getelementptr inbounds [1 x %struct.blake2b_param_], ptr %13, i64 0, i64 0
  %45 = getelementptr inbounds nuw %struct.blake2b_param_, ptr %44, i32 0, i32 4
  %46 = getelementptr inbounds [4 x i8], ptr %45, i64 0, i64 0
  call void @store32_le(ptr noundef %46, i32 noundef 0)
  %47 = getelementptr inbounds [1 x %struct.blake2b_param_], ptr %13, i64 0, i64 0
  %48 = getelementptr inbounds nuw %struct.blake2b_param_, ptr %47, i32 0, i32 5
  %49 = getelementptr inbounds [8 x i8], ptr %48, i64 0, i64 0
  call void @store64_le(ptr noundef %49, i64 noundef 0)
  %50 = getelementptr inbounds [1 x %struct.blake2b_param_], ptr %13, i64 0, i64 0
  %51 = getelementptr inbounds nuw %struct.blake2b_param_, ptr %50, i32 0, i32 6
  store i8 0, ptr %51, align 16
  %52 = getelementptr inbounds [1 x %struct.blake2b_param_], ptr %13, i64 0, i64 0
  %53 = getelementptr inbounds nuw %struct.blake2b_param_, ptr %52, i32 0, i32 7
  store i8 0, ptr %53, align 1
  %54 = getelementptr inbounds [1 x %struct.blake2b_param_], ptr %13, i64 0, i64 0
  %55 = getelementptr inbounds nuw %struct.blake2b_param_, ptr %54, i32 0, i32 8
  %56 = getelementptr inbounds [14 x i8], ptr %55, i64 0, i64 0
  %57 = call ptr @memset.inline(ptr noundef %56, i32 noundef 0, i64 noundef 14) #8
  %58 = load ptr, ptr %11, align 8
  %59 = icmp ne ptr %58, null
  br i1 %59, label %60, label %64

60:                                               ; preds = %33
  %61 = getelementptr inbounds [1 x %struct.blake2b_param_], ptr %13, i64 0, i64 0
  %62 = load ptr, ptr %11, align 8
  %63 = call i32 @blake2b_param_set_salt(ptr noundef %61, ptr noundef %62)
  br label %69

64:                                               ; preds = %33
  %65 = getelementptr inbounds [1 x %struct.blake2b_param_], ptr %13, i64 0, i64 0
  %66 = getelementptr inbounds nuw %struct.blake2b_param_, ptr %65, i32 0, i32 9
  %67 = getelementptr inbounds [16 x i8], ptr %66, i64 0, i64 0
  %68 = call ptr @memset.inline(ptr noundef %67, i32 noundef 0, i64 noundef 16) #8
  br label %69

69:                                               ; preds = %64, %60
  %70 = load ptr, ptr %12, align 8
  %71 = icmp ne ptr %70, null
  br i1 %71, label %72, label %76

72:                                               ; preds = %69
  %73 = getelementptr inbounds [1 x %struct.blake2b_param_], ptr %13, i64 0, i64 0
  %74 = load ptr, ptr %12, align 8
  %75 = call i32 @blake2b_param_set_personal(ptr noundef %73, ptr noundef %74)
  br label %81

76:                                               ; preds = %69
  %77 = getelementptr inbounds [1 x %struct.blake2b_param_], ptr %13, i64 0, i64 0
  %78 = getelementptr inbounds nuw %struct.blake2b_param_, ptr %77, i32 0, i32 10
  %79 = getelementptr inbounds [16 x i8], ptr %78, i64 0, i64 0
  %80 = call ptr @memset.inline(ptr noundef %79, i32 noundef 0, i64 noundef 16) #8
  br label %81

81:                                               ; preds = %76, %72
  %82 = load ptr, ptr %7, align 8
  %83 = getelementptr inbounds [1 x %struct.blake2b_param_], ptr %13, i64 0, i64 0
  %84 = call i32 @_sodium_blake2b_init_param(ptr noundef %82, ptr noundef %83)
  %85 = icmp slt i32 %84, 0
  br i1 %85, label %86, label %87

86:                                               ; preds = %81
  call void @sodium_misuse() #9
  unreachable

87:                                               ; preds = %81
  call void @llvm.lifetime.start.p0(i64 128, ptr %14) #8
  %88 = getelementptr inbounds [128 x i8], ptr %14, i64 0, i64 0
  %89 = call ptr @memset.inline(ptr noundef %88, i32 noundef 0, i64 noundef 128) #8
  %90 = getelementptr inbounds [128 x i8], ptr %14, i64 0, i64 0
  %91 = load ptr, ptr %9, align 8
  %92 = load i8, ptr %10, align 1
  %93 = zext i8 %92 to i64
  %94 = call ptr @memcpy.inline(ptr noundef %90, ptr noundef %91, i64 noundef %93) #8
  %95 = load ptr, ptr %7, align 8
  %96 = getelementptr inbounds [128 x i8], ptr %14, i64 0, i64 0
  %97 = call i32 @_sodium_blake2b_update(ptr noundef %95, ptr noundef %96, i64 noundef 128)
  %98 = getelementptr inbounds [128 x i8], ptr %14, i64 0, i64 0
  call void @sodium_memzero(ptr noundef %98, i64 noundef 128)
  call void @llvm.lifetime.end.p0(i64 128, ptr %14) #8
  call void @llvm.lifetime.end.p0(i64 64, ptr %13) #8
  ret i32 0
}