; Function Attrs: nounwind ssp uwtable
define hidden noundef i32 @_sodium_blake2b_init_key_salt_personal(ptr noundef %0, i8 noundef zeroext %1, ptr noundef readonly captures(address_is_null) %2, i8 noundef zeroext %3, ptr noundef readonly captures(address_is_null) %4, ptr noundef readonly captures(address_is_null) %5) local_unnamed_addr #2 {
  %7 = alloca [1 x %struct.blake2b_param_], align 16
  %8 = alloca [128 x i8], align 16
  call void @llvm.lifetime.start.p0(i64 64, ptr nonnull %7) #8
  %9 = add i8 %1, -65
  %or.cond = icmp ult i8 %9, -64
  br i1 %or.cond, label %10, label %11

10:                                               ; preds = %6
  tail call void @sodium_misuse() #9
  unreachable

11:                                               ; preds = %6
  %12 = icmp eq ptr %2, null
  %13 = add i8 %3, -65
  %14 = icmp ult i8 %13, -64
  %or.cond7 = or i1 %12, %14
  br i1 %or.cond7, label %15, label %16

15:                                               ; preds = %11
  tail call void @sodium_misuse() #9
  unreachable

16:                                               ; preds = %11
  store i8 %1, ptr %7, align 16
  %17 = getelementptr inbounds nuw i8, ptr %7, i64 1
  store i8 %3, ptr %17, align 1
  %18 = getelementptr inbounds nuw i8, ptr %7, i64 2
  store i8 1, ptr %18, align 2
  %19 = getelementptr inbounds nuw i8, ptr %7, i64 3
  store i8 1, ptr %19, align 1
  %20 = getelementptr inbounds nuw i8, ptr %7, i64 4
  %.not = icmp eq ptr %4, null
  call void @llvm.memset.p0.i64(ptr noundef nonnull align 4 dereferenceable(28) %20, i8 0, i64 28, i1 false)
  %21 = getelementptr inbounds nuw i8, ptr %7, i64 32
  br i1 %.not, label %23, label %22

22:                                               ; preds = %16
  call void @llvm.memcpy.p0.p0.i64(ptr noundef nonnull align 16 dereferenceable(16) %21, ptr noundef nonnull readonly align 1 dereferenceable(16) %4, i64 noundef 16, i1 noundef false) #8
  br label %24

23:                                               ; preds = %16
  call void @llvm.memset.p0.i64(ptr noundef nonnull align 16 dereferenceable(16) %21, i8 noundef 0, i64 noundef 16, i1 noundef false) #8
  br label %24

24:                                               ; preds = %23, %22
  %.not25 = icmp eq ptr %5, null
  %25 = getelementptr inbounds nuw i8, ptr %7, i64 48
  br i1 %.not25, label %27, label %26

26:                                               ; preds = %24
  call void @llvm.memcpy.p0.p0.i64(ptr noundef nonnull align 16 dereferenceable(16) %25, ptr noundef nonnull readonly align 1 dereferenceable(16) %5, i64 noundef 16, i1 noundef false) #8
  br label %28

27:                                               ; preds = %24
  call void @llvm.memset.p0.i64(ptr noundef nonnull align 16 dereferenceable(16) %25, i8 noundef 0, i64 noundef 16, i1 noundef false) #8
  br label %28

28:                                               ; preds = %27, %26
  tail call void @llvm.memcpy.p0.p0.i64(ptr noundef nonnull align 1 dereferenceable(64) %0, ptr noundef nonnull align 16 dereferenceable(64) @blake2b_IV, i64 64, i1 false)
  %29 = getelementptr inbounds nuw i8, ptr %0, i64 64
  tail call void @llvm.memset.p0.i64(ptr noundef nonnull align 1 dereferenceable(297) %29, i8 noundef 0, i64 noundef 297, i1 noundef false) #8
  br label %30

30:                                               ; preds = %30, %28
  %.07.i = phi i64 [ 0, %28 ], [ %37, %30 ]
  %31 = shl nuw nsw i64 %.07.i, 3
  %32 = getelementptr i8, ptr %7, i64 %31
  %33 = load i64, ptr %32, align 8
  %34 = getelementptr [8 x i64], ptr %0, i64 0, i64 %.07.i
  %35 = load i64, ptr %34, align 1
  %36 = xor i64 %35, %33
  store i64 %36, ptr %34, align 1
  %37 = add nuw nsw i64 %.07.i, 1
  %exitcond.not.i = icmp eq i64 %37, 8
  br i1 %exitcond.not.i, label %_sodium_blake2b_init_param.exit, label %30, !llvm.loop !4

_sodium_blake2b_init_param.exit:                  ; preds = %30
  call void @llvm.lifetime.start.p0(i64 128, ptr nonnull %8) #8
  call void @llvm.memset.p0.i64(ptr noundef nonnull align 16 dereferenceable(128) %8, i8 noundef 0, i64 noundef 128, i1 noundef false) #8
  %38 = zext nneg i8 %3 to i64
  %39 = call ptr @__memcpy_chk(ptr noundef nonnull %8, ptr noundef nonnull %2, i64 noundef %38, i64 noundef 128) #8, !alias.scope !12
  %40 = call i32 @_sodium_blake2b_update(ptr noundef nonnull %0, ptr noundef nonnull %8, i64 noundef 128)
  call void @sodium_memzero(ptr noundef nonnull %8, i64 noundef 128) #8
  call void @llvm.lifetime.end.p0(i64 128, ptr nonnull %8) #8
  call void @llvm.lifetime.end.p0(i64 64, ptr nonnull %7) #8
  ret i32 0
}